; Function Attrs: cold nounwind optsize uwtable
define internal noundef i32 @roq_encode_end(ptr noundef readonly captures(none) %0) #0 {
  %2 = getelementptr inbounds nuw i8, ptr %0, i64 32
  %3 = load ptr, ptr %2, align 8, !tbaa !4
  %4 = getelementptr inbounds nuw i8, ptr %3, i64 24
  tail call void @av_frame_free(ptr noundef nonnull %4) #9
  %5 = getelementptr inbounds nuw i8, ptr %3, i64 16
  tail call void @av_frame_free(ptr noundef nonnull %5) #9
  %6 = getelementptr inbounds nuw i8, ptr %3, i64 107424
  tail call void @av_freep(ptr noundef nonnull %6) #9
  %7 = getelementptr inbounds nuw i8, ptr %3, i64 107432
  tail call void @av_freep(ptr noundef nonnull %7) #9
  %8 = getelementptr inbounds nuw i8, ptr %3, i64 5952
  tail call void @av_freep(ptr noundef nonnull %8) #9
  %9 = getelementptr inbounds nuw i8, ptr %3, i64 5960
  tail call void @av_freep(ptr noundef nonnull %9) #9
  %10 = getelementptr inbounds nuw i8, ptr %3, i64 5968
  tail call void @av_freep(ptr noundef nonnull %10) #9
  %11 = getelementptr inbounds nuw i8, ptr %3, i64 5976
  tail call void @av_freep(ptr noundef nonnull %11) #9
  %12 = getelementptr inbounds nuw i8, ptr %3, i64 5672
  tail call void @avpriv_elbg_free(ptr noundef nonnull %12) #9
  ret i32 0
}